target datalayout = "e-m:e-p270:32:32-p271:32:32-p272:64:64-i64:64-i128:128-f80:128-n8:16:32:64-S128"
target triple = "x86_64-pc-linux-gnu"

@.str.28 = private unnamed_addr constant [4 x i8] c"reg\00", align 1
@.str.50 = private unnamed_addr constant [12 x i8] c"device_type\00", align 1
@.str.51 = private unnamed_addr constant [4 x i8] c"cpu\00", align 1

; Function Attrs: inlinehint mustprogress nounwind uwtable
define internal noundef i32 @_ZL12fdt32_to_cpuj(i32 noundef %0) #9 {
  %2 = alloca i32, align 4
  store i32 %0, ptr %2, align 4, !tbaa !88
  %3 = getelementptr inbounds i8, ptr %2, i64 0
  %4 = load i8, ptr %3, align 4, !tbaa !41
  %5 = zext i8 %4 to i64
  %6 = shl i64 %5, 24
  %7 = getelementptr inbounds i8, ptr %2, i64 1
  %8 = load i8, ptr %7, align 1, !tbaa !41
  %9 = zext i8 %8 to i64
  %10 = shl i64 %9, 16
  %11 = or i64 %6, %10
  %12 = getelementptr inbounds i8, ptr %2, i64 2
  %13 = load i8, ptr %12, align 2, !tbaa !41
  %14 = zext i8 %13 to i64
  %15 = shl i64 %14, 8
  %16 = or i64 %11, %15
  %17 = getelementptr inbounds i8, ptr %2, i64 3
  %18 = load i8, ptr %17, align 1, !tbaa !41
  %19 = zext i8 %18 to i64
  %20 = or i64 %16, %19
  %21 = trunc i64 %20 to i32
  ret i32 %21
}

; Function Attrs: mustprogress uwtable
define internal noundef i32 @_ZL14check_cpu_nodePKvi(ptr noundef %0, i32 noundef %1) #4 {
  %3 = alloca i32, align 4
  %4 = alloca ptr, align 8
  %5 = alloca i32, align 4
  %6 = alloca i32, align 4
  %7 = alloca ptr, align 8
  %8 = alloca i32, align 4
  store ptr %0, ptr %4, align 8, !tbaa !57
  store i32 %1, ptr %5, align 4, !tbaa !88
  call void @llvm.lifetime.start.p0(i64 4, ptr %6) #3
  call void @llvm.lifetime.start.p0(i64 8, ptr %7) #3
  %9 = load ptr, ptr %4, align 8, !tbaa !57
  %10 = icmp ne ptr %9, null
  br i1 %10, label %11, label %14

11:                                               ; preds = %2
  %12 = load i32, ptr %5, align 4, !tbaa !88
  %13 = icmp slt i32 %12, 0
  br i1 %13, label %14, label %15

14:                                               ; preds = %11, %2
  store i32 -22, ptr %3, align 4
  store i32 1, ptr %8, align 4
  br label %31

15:                                               ; preds = %11
  %16 = load ptr, ptr %4, align 8, !tbaa !57
  %17 = load i32, ptr %5, align 4, !tbaa !88
  %18 = call ptr @fdt_getprop(ptr noundef %16, i32 noundef %17, ptr noundef @.str.50, ptr noundef %6)
  store ptr %18, ptr %7, align 8, !tbaa !57
  %19 = load ptr, ptr %7, align 8, !tbaa !57
  %20 = icmp ne ptr %19, null
  br i1 %20, label %21, label %24

21:                                               ; preds = %15
  %22 = load i32, ptr %6, align 4, !tbaa !88
  %23 = icmp ne i32 %22, 0
  br i1 %23, label %25, label %24

24:                                               ; preds = %21, %15
  store i32 -22, ptr %3, align 4
  store i32 1, ptr %8, align 4
  br label %31

25:                                               ; preds = %21
  %26 = load ptr, ptr %7, align 8, !tbaa !57
  %27 = call i32 @strncmp(ptr noundef %26, ptr noundef @.str.51, i64 noundef 3) #20
  %28 = icmp ne i32 %27, 0
  br i1 %28, label %29, label %30

29:                                               ; preds = %25
  store i32 -22, ptr %3, align 4
  store i32 1, ptr %8, align 4
  br label %31

30:                                               ; preds = %25
  store i32 0, ptr %3, align 4
  store i32 1, ptr %8, align 4
  br label %31

31:                                               ; preds = %30, %29, %24, %14
  call void @llvm.lifetime.end.p0(i64 8, ptr %7) #3
  call void @llvm.lifetime.end.p0(i64 4, ptr %6) #3
  %32 = load i32, ptr %3, align 4
  ret i32 %32
}

; Function Attrs: mustprogress uwtable
define noundef i32 @_Z16fdt_parse_hartidPKviPj(ptr noundef %0, i32 noundef %1, ptr noundef %2) #4 {
  %4 = alloca i32, align 4
  %5 = alloca ptr, align 8
  %6 = alloca i32, align 4
  %7 = alloca ptr, align 8
  %8 = alloca i32, align 4
  %9 = alloca i32, align 4
  %10 = alloca ptr, align 8
  %11 = alloca i32, align 4
  store ptr %0, ptr %5, align 8, !tbaa !57
  store i32 %1, ptr %6, align 4, !tbaa !88
  store ptr %2, ptr %7, align 8, !tbaa !92
  call void @llvm.lifetime.start.p0(i64 4, ptr %8) #3
  call void @llvm.lifetime.start.p0(i64 4, ptr %9) #3
  call void @llvm.lifetime.start.p0(i64 8, ptr %10) #3
  %12 = load ptr, ptr %5, align 8, !tbaa !57
  %13 = load i32, ptr %6, align 4, !tbaa !88
  %14 = call noundef i32 @_ZL14check_cpu_nodePKvi(ptr noundef %12, i32 noundef %13)
  store i32 %14, ptr %9, align 4, !tbaa !88
  %15 = icmp slt i32 %14, 0
  br i1 %15, label %16, label %18

16:                                               ; preds = %3
  %17 = load i32, ptr %9, align 4, !tbaa !88
  store i32 %17, ptr %4, align 4
  store i32 1, ptr %11, align 4
  br label %43

18:                                               ; preds = %3
  %19 = load ptr, ptr %5, align 8, !tbaa !57
  %20 = load i32, ptr %6, align 4, !tbaa !88
  %21 = call ptr @fdt_getprop(ptr noundef %19, i32 noundef %20, ptr noundef @.str.28, ptr noundef %8)
  store ptr %21, ptr %10, align 8, !tbaa !92
  %22 = load ptr, ptr %10, align 8, !tbaa !92
  %23 = icmp ne ptr %22, null
  br i1 %23, label %24, label %27

24:                                               ; preds = %18
  %25 = load i32, ptr %8, align 4, !tbaa !88
  %26 = icmp slt i32 %25, 4
  br i1 %26, label %27, label %28

27:                                               ; preds = %24, %18
  store i32 -22, ptr %4, align 4
  store i32 1, ptr %11, align 4
  br label %43

28:                                               ; preds = %24
  %29 = load i32, ptr %8, align 4, !tbaa !88
  %30 = icmp sgt i32 %29, 4
  br i1 %30, label %31, label %34

31:                                               ; preds = %28
  %32 = load ptr, ptr %10, align 8, !tbaa !92
  %33 = getelementptr inbounds nuw i32, ptr %32, i32 1
  store ptr %33, ptr %10, align 8, !tbaa !92
  br label %34

34:                                               ; preds = %31, %28
  %35 = load ptr, ptr %7, align 8, !tbaa !92
  %36 = icmp ne ptr %35, null
  br i1 %36, label %37, label %42

37:                                               ; preds = %34
  %38 = load ptr, ptr %10, align 8, !tbaa !92
  %39 = load i32, ptr %38, align 4, !tbaa !88
  %40 = call noundef i32 @_ZL12fdt32_to_cpuj(i32 noundef %39)
  %41 = load ptr, ptr %7, align 8, !tbaa !92
  store i32 %40, ptr %41, align 4, !tbaa !88
  br label %42

42:                                               ; preds = %37, %34
  store i32 0, ptr %4, align 4
  store i32 1, ptr %11, align 4
  br label %43

43:                                               ; preds = %42, %27, %16
  call void @llvm.lifetime.end.p0(i64 8, ptr %10) #3
  call void @llvm.lifetime.end.p0(i64 4, ptr %9) #3
  call void @llvm.lifetime.end.p0(i64 4, ptr %8) #3
  %44 = load i32, ptr %4, align 4
  ret i32 %44
}