; Function Attrs: mustprogress uwtable
define noundef range(i32 -22, 1) i32 @_Z16fdt_parse_hartidPKviPj(ptr noundef %0, i32 noundef %1, ptr noundef writeonly captures(address_is_null) %2) local_unnamed_addr #3 {
  %4 = alloca i32, align 4
  %5 = alloca i32, align 4
  call void @llvm.lifetime.start.p0(i64 4, ptr nonnull %5) #22
  call void @llvm.lifetime.start.p0(i64 4, ptr nonnull %4) #22
  %6 = icmp eq ptr %0, null
  %7 = icmp slt i32 %1, 0
  %or.cond.i = or i1 %6, %7
  br i1 %or.cond.i, label %_ZL14check_cpu_nodePKvi.exit.thread, label %8

8:                                                ; preds = %3
  %9 = call ptr @fdt_getprop(ptr noundef nonnull %0, i32 noundef %1, ptr noundef nonnull @.str.50, ptr noundef nonnull %4)
  %10 = icmp ne ptr %9, null
  %11 = load i32, ptr %4, align 4
  %12 = icmp ne i32 %11, 0
  %or.cond3.i = select i1 %10, i1 %12, i1 false
  br i1 %or.cond3.i, label %sub_0.i, label %_ZL14check_cpu_nodePKvi.exit.thread

sub_0.i:                                          ; preds = %8
  %13 = load i8, ptr %9, align 1
  %.not12.i = icmp eq i8 %13, 99
  br i1 %.not12.i, label %sub_1.i, label %_ZL14check_cpu_nodePKvi.exit.thread

sub_1.i:                                          ; preds = %sub_0.i
  %14 = getelementptr inbounds nuw i8, ptr %9, i64 1
  %15 = load i8, ptr %14, align 1
  %.not13.i = icmp eq i8 %15, 112
  br i1 %.not13.i, label %sub_2.i, label %_ZL14check_cpu_nodePKvi.exit.thread

sub_2.i:                                          ; preds = %sub_1.i
  %16 = getelementptr inbounds nuw i8, ptr %9, i64 2
  %17 = load i8, ptr %16, align 1
  %18 = icmp eq i8 %17, 117
  br i1 %18, label %19, label %_ZL14check_cpu_nodePKvi.exit.thread

_ZL14check_cpu_nodePKvi.exit.thread:              ; preds = %3, %8, %sub_0.i, %sub_1.i, %sub_2.i
  call void @llvm.lifetime.end.p0(i64 4, ptr nonnull %4) #22
  br label %28

19:                                               ; preds = %sub_2.i
  call void @llvm.lifetime.end.p0(i64 4, ptr nonnull %4) #22
  %20 = call ptr @fdt_getprop(ptr noundef nonnull %0, i32 noundef %1, ptr noundef nonnull @.str.28, ptr noundef nonnull %5)
  %21 = icmp eq ptr %20, null
  %22 = load i32, ptr %5, align 4
  %23 = icmp slt i32 %22, 4
  %or.cond = select i1 %21, i1 true, i1 %23
  br i1 %or.cond, label %28, label %24

24:                                               ; preds = %19
  %.not = icmp eq ptr %2, null
  br i1 %.not, label %28, label %25

25:                                               ; preds = %24
  %26 = icmp samesign ugt i32 %22, 4
  %spec.select.idx = select i1 %26, i64 4, i64 0
  %spec.select = getelementptr inbounds nuw i8, ptr %20, i64 %spec.select.idx
  %27 = load i32, ptr %spec.select, align 4, !tbaa !95
  %rev.i = call noundef i32 @llvm.bswap.i32(i32 %27)
  store i32 %rev.i, ptr %2, align 4, !tbaa !95
  br label %28

28:                                               ; preds = %_ZL14check_cpu_nodePKvi.exit.thread, %24, %25, %19
  %.011 = phi i32 [ -22, %19 ], [ 0, %25 ], [ 0, %24 ], [ -22, %_ZL14check_cpu_nodePKvi.exit.thread ]
  call void @llvm.lifetime.end.p0(i64 4, ptr nonnull %5) #22
  ret i32 %.011
}